target datalayout = "e-m:e-p270:32:32-p271:32:32-p272:64:64-i64:64-i128:128-f80:128-n8:16:32:64-S128"
target triple = "x86_64-pc-linux-gnu"

@_ZN7TypeInt3INTE = external global ptr, align 8
@_ZN8TypeLong4LONGE = external global ptr, align 8
@_ZN4Type4HALFE = external global ptr, align 8
@_ZN7TypePtr7NOTNULLE = external global ptr, align 8

; Function Attrs: mustprogress nounwind uwtable
define internal noundef ptr @_ZL19make_arraycopy_Type13ArrayCopyType(i32 noundef %0) #1 {
  %2 = alloca i32, align 4
  %3 = alloca i32, align 4
  %4 = alloca i32, align 4
  %5 = alloca i32, align 4
  %6 = alloca ptr, align 8
  %7 = alloca i32, align 4
  %8 = alloca ptr, align 8
  %9 = alloca i32, align 4
  %10 = alloca ptr, align 8
  store i32 %0, ptr %2, align 4
  %11 = load i32, ptr %2, align 4
  %12 = icmp eq i32 %11, 0
  %13 = select i1 %12, i32 3, i32 5
  store i32 %13, ptr %3, align 4
  %14 = load i32, ptr %2, align 4
  %15 = icmp eq i32 %14, 0
  br i1 %15, label %16, label %17

16:                                               ; preds = %1
  br label %21

17:                                               ; preds = %1
  %18 = load i32, ptr %2, align 4
  %19 = icmp eq i32 %18, 1
  %20 = select i1 %19, i32 2, i32 0
  br label %21

21:                                               ; preds = %17, %16
  %22 = phi i32 [ 1, %16 ], [ %20, %17 ]
  store i32 %22, ptr %4, align 4
  %23 = load i32, ptr %3, align 4
  store i32 %23, ptr %5, align 4
  %24 = load i32, ptr %4, align 4
  %25 = load i32, ptr %5, align 4
  %26 = add nsw i32 %25, %24
  store i32 %26, ptr %5, align 4
  %27 = load i32, ptr %5, align 4
  %28 = call noundef ptr @_ZN9TypeTuple6fieldsEj(i32 noundef %27)
  store ptr %28, ptr %6, align 8
  store i32 5, ptr %7, align 4
  %29 = load ptr, ptr @_ZN7TypePtr7NOTNULLE, align 8
  %30 = load ptr, ptr %6, align 8
  %31 = load i32, ptr %7, align 4
  %32 = add nsw i32 %31, 1
  store i32 %32, ptr %7, align 4
  %33 = sext i32 %31 to i64
  %34 = getelementptr inbounds ptr, ptr %30, i64 %33
  store ptr %29, ptr %34, align 8
  %35 = load i32, ptr %4, align 4
  %36 = icmp eq i32 %35, 0
  br i1 %36, label %37, label %44

37:                                               ; preds = %21
  %38 = load ptr, ptr @_ZN7TypeInt3INTE, align 8
  %39 = load ptr, ptr %6, align 8
  %40 = load i32, ptr %7, align 4
  %41 = add nsw i32 %40, 1
  store i32 %41, ptr %7, align 4
  %42 = sext i32 %40 to i64
  %43 = getelementptr inbounds ptr, ptr %39, i64 %42
  store ptr %38, ptr %43, align 8
  br label %44

44:                                               ; preds = %37, %21
  %45 = load ptr, ptr @_ZN7TypePtr7NOTNULLE, align 8
  %46 = load ptr, ptr %6, align 8
  %47 = load i32, ptr %7, align 4
  %48 = add nsw i32 %47, 1
  store i32 %48, ptr %7, align 4
  %49 = sext i32 %47 to i64
  %50 = getelementptr inbounds ptr, ptr %46, i64 %49
  store ptr %45, ptr %50, align 8
  %51 = load i32, ptr %4, align 4
  %52 = icmp eq i32 %51, 0
  br i1 %52, label %53, label %66

53:                                               ; preds = %44
  %54 = load ptr, ptr @_ZN7TypeInt3INTE, align 8
  %55 = load ptr, ptr %6, align 8
  %56 = load i32, ptr %7, align 4
  %57 = add nsw i32 %56, 1
  store i32 %57, ptr %7, align 4
  %58 = sext i32 %56 to i64
  %59 = getelementptr inbounds ptr, ptr %55, i64 %58
  store ptr %54, ptr %59, align 8
  %60 = load ptr, ptr @_ZN7TypeInt3INTE, align 8
  %61 = load ptr, ptr %6, align 8
  %62 = load i32, ptr %7, align 4
  %63 = add nsw i32 %62, 1
  store i32 %63, ptr %7, align 4
  %64 = sext i32 %62 to i64
  %65 = getelementptr inbounds ptr, ptr %61, i64 %64
  store ptr %60, ptr %65, align 8
  br label %66

66:                                               ; preds = %53, %44
  br label %67

67:                                               ; preds = %71, %66
  %68 = load i32, ptr %4, align 4
  %69 = add nsw i32 %68, -1
  store i32 %69, ptr %4, align 4
  %70 = icmp sgt i32 %68, 0
  br i1 %70, label %71, label %84

71:                                               ; preds = %67
  %72 = load ptr, ptr @_ZN8TypeLong4LONGE, align 8
  %73 = load ptr, ptr %6, align 8
  %74 = load i32, ptr %7, align 4
  %75 = add nsw i32 %74, 1
  store i32 %75, ptr %7, align 4
  %76 = sext i32 %74 to i64
  %77 = getelementptr inbounds ptr, ptr %73, i64 %76
  store ptr %72, ptr %77, align 8
  %78 = load ptr, ptr @_ZN4Type4HALFE, align 8
  %79 = load ptr, ptr %6, align 8
  %80 = load i32, ptr %7, align 4
  %81 = add nsw i32 %80, 1
  store i32 %81, ptr %7, align 4
  %82 = sext i32 %80 to i64
  %83 = getelementptr inbounds ptr, ptr %79, i64 %82
  store ptr %78, ptr %83, align 8
  br label %67, !llvm.loop !9

84:                                               ; preds = %67
  %85 = load i32, ptr %2, align 4
  %86 = icmp eq i32 %85, 1
  br i1 %86, label %87, label %94

87:                                               ; preds = %84
  %88 = load ptr, ptr @_ZN7TypePtr7NOTNULLE, align 8
  %89 = load ptr, ptr %6, align 8
  %90 = load i32, ptr %7, align 4
  %91 = add nsw i32 %90, 1
  store i32 %91, ptr %7, align 4
  %92 = sext i32 %90 to i64
  %93 = getelementptr inbounds ptr, ptr %89, i64 %92
  store ptr %88, ptr %93, align 8
  br label %94

94:                                               ; preds = %87, %84
  %95 = load i32, ptr %5, align 4
  %96 = add nsw i32 5, %95
  %97 = load ptr, ptr %6, align 8
  %98 = call noundef ptr @_ZN9TypeTuple4makeEjPPK4Type(i32 noundef %96, ptr noundef %97)
  store ptr %98, ptr %8, align 8
  %99 = load i32, ptr %2, align 4
  %100 = icmp eq i32 %99, 1
  br i1 %100, label %104, label %101

101:                                              ; preds = %94
  %102 = load i32, ptr %2, align 4
  %103 = icmp eq i32 %102, 3
  br label %104

104:                                              ; preds = %101, %94
  %105 = phi i1 [ true, %94 ], [ %103, %101 ]
  %106 = select i1 %105, i32 1, i32 0
  store i32 %106, ptr %9, align 4
  %107 = call noundef ptr @_ZN9TypeTuple6fieldsEj(i32 noundef 1)
  store ptr %107, ptr %6, align 8
  %108 = load i32, ptr %9, align 4
  %109 = icmp eq i32 %108, 0
  br i1 %109, label %110, label %113

110:                                              ; preds = %104
  %111 = load ptr, ptr %6, align 8
  %112 = getelementptr inbounds ptr, ptr %111, i64 5
  store ptr null, ptr %112, align 8
  br label %117

113:                                              ; preds = %104
  %114 = load ptr, ptr @_ZN7TypeInt3INTE, align 8
  %115 = load ptr, ptr %6, align 8
  %116 = getelementptr inbounds ptr, ptr %115, i64 5
  store ptr %114, ptr %116, align 8
  br label %117

117:                                              ; preds = %113, %110
  %118 = load i32, ptr %9, align 4
  %119 = add nsw i32 5, %118
  %120 = load ptr, ptr %6, align 8
  %121 = call noundef ptr @_ZN9TypeTuple4makeEjPPK4Type(i32 noundef %119, ptr noundef %120)
  store ptr %121, ptr %10, align 8
  %122 = load ptr, ptr %8, align 8
  %123 = load ptr, ptr %10, align 8
  %124 = call noundef ptr @_ZN8TypeFunc4makeEPK9TypeTupleS2_(ptr noundef %122, ptr noundef %123)
  ret ptr %124
}