; Function Attrs: mustprogress nounwind uwtable
define internal fastcc noundef ptr @_ZL19make_arraycopy_Type13ArrayCopyType(i32 noundef %0) unnamed_addr #0 {
  %2 = icmp eq i32 %0, 0
  %3 = select i1 %2, i32 3, i32 5
  %4 = icmp eq i32 %0, 1
  %5 = select i1 %4, i32 2, i32 0
  %6 = select i1 %2, i32 1, i32 %5
  %7 = add nuw nsw i32 %6, %3
  %8 = tail call noundef ptr @_ZN9TypeTuple6fieldsEj(i32 noundef %7) #12
  %9 = load ptr, ptr @_ZN7TypePtr7NOTNULLE, align 8
  %10 = getelementptr inbounds i8, ptr %8, i64 40
  store ptr %9, ptr %10, align 8
  %11 = icmp eq i32 %6, 0
  br i1 %11, label %.thread, label %.lr.ph.preheader

.thread:                                          ; preds = %1
  %12 = load ptr, ptr @_ZN7TypeInt3INTE, align 8
  %13 = getelementptr inbounds i8, ptr %8, i64 56
  store ptr %9, ptr %13, align 8
  %14 = getelementptr inbounds i8, ptr %8, i64 64
  store ptr %12, ptr %14, align 8
  %15 = getelementptr inbounds i8, ptr %8, i64 72
  store ptr %12, ptr %15, align 8
  %16 = getelementptr inbounds i8, ptr %8, i64 48
  store ptr %12, ptr %16, align 8
  br label %._crit_edge

.lr.ph.preheader:                                 ; preds = %1
  %17 = getelementptr inbounds i8, ptr %8, i64 48
  store ptr %9, ptr %17, align 8
  br label %.lr.ph

.lr.ph:                                           ; preds = %.lr.ph.preheader, %.lr.ph
  %indvars.iv = phi i64 [ 7, %.lr.ph.preheader ], [ %indvars.iv.next, %.lr.ph ]
  %.042 = phi i32 [ %6, %.lr.ph.preheader ], [ %18, %.lr.ph ]
  %18 = add nsw i32 %.042, -1
  %19 = load ptr, ptr @_ZN8TypeLong4LONGE, align 8
  %20 = getelementptr inbounds ptr, ptr %8, i64 %indvars.iv
  store ptr %19, ptr %20, align 8
  %21 = load ptr, ptr @_ZN4Type4HALFE, align 8
  %indvars.iv.next = add nuw nsw i64 %indvars.iv, 2
  %22 = getelementptr i8, ptr %20, i64 8
  store ptr %21, ptr %22, align 8
  %23 = icmp ugt i32 %.042, 1
  br i1 %23, label %.lr.ph, label %._crit_edge.loopexit, !llvm.loop !16

._crit_edge.loopexit:                             ; preds = %.lr.ph
  %24 = and i64 %indvars.iv.next, 4294967295
  br label %._crit_edge

._crit_edge:                                      ; preds = %.thread, %._crit_edge.loopexit
  %.2.lcssa = phi i64 [ %24, %._crit_edge.loopexit ], [ 10, %.thread ]
  br i1 %4, label %.thread40, label %30

.thread40:                                        ; preds = %._crit_edge
  %25 = load ptr, ptr @_ZN7TypePtr7NOTNULLE, align 8
  %26 = getelementptr inbounds ptr, ptr %8, i64 %.2.lcssa
  store ptr %25, ptr %26, align 8
  %27 = add nuw nsw i32 %7, 5
  %28 = tail call noundef ptr @_ZN9TypeTuple4makeEjPPK4Type(i32 noundef %27, ptr noundef nonnull %8) #12
  %29 = tail call noundef ptr @_ZN9TypeTuple6fieldsEj(i32 noundef 1) #12
  br label %34

30:                                               ; preds = %._crit_edge
  %31 = add nuw nsw i32 %7, 5
  %32 = tail call noundef ptr @_ZN9TypeTuple4makeEjPPK4Type(i32 noundef %31, ptr noundef nonnull %8) #12
  %33 = tail call noundef ptr @_ZN9TypeTuple6fieldsEj(i32 noundef 1) #12
  %cond = icmp eq i32 %0, 3
  br i1 %cond, label %34, label %38

34:                                               ; preds = %30, %.thread40
  %35 = phi ptr [ %29, %.thread40 ], [ %33, %30 ]
  %36 = phi ptr [ %28, %.thread40 ], [ %32, %30 ]
  %37 = load ptr, ptr @_ZN7TypeInt3INTE, align 8
  br label %38

38:                                               ; preds = %30, %34
  %.sink47 = phi ptr [ %35, %34 ], [ %33, %30 ]
  %.sink = phi ptr [ %37, %34 ], [ null, %30 ]
  %39 = phi ptr [ %36, %34 ], [ %32, %30 ]
  %40 = phi i32 [ 6, %34 ], [ 5, %30 ]
  %41 = getelementptr inbounds i8, ptr %.sink47, i64 40
  store ptr %.sink, ptr %41, align 8
  %42 = tail call noundef ptr @_ZN9TypeTuple4makeEjPPK4Type(i32 noundef %40, ptr noundef nonnull %.sink47) #12
  %43 = tail call noundef ptr @_ZN8TypeFunc4makeEPK9TypeTupleS2_(ptr noundef %39, ptr noundef %42) #12
  ret ptr %43
}